; ModuleID = '46/3237.c'
source_filename = "46/3237.c"
target datalayout = "e-m:e-p270:32:32-p271:32:32-p272:64:64-i64:64-f80:128-n8:16:32:64-S128"
target triple = "x86_64-pc-linux-gnu"

@.str = private unnamed_addr constant [6 x i8] c"%d %d\00", align 1
@.str.1 = private unnamed_addr constant [3 x i8] c"%d\00", align 1
@.str.2 = private unnamed_addr constant [4 x i8] c"%d\0A\00", align 1

; Function Attrs: noinline nounwind uwtable
define dso_local i32 @main() #0 {
  %1 = alloca i32, align 4
  %2 = alloca i32, align 4
  %3 = alloca i32, align 4
  %4 = alloca i32, align 4
  %5 = alloca i32, align 4
  %6 = alloca i32, align 4
  %7 = alloca [100 x [100 x i32]], align 16
  %8 = alloca i32, align 4
  %9 = alloca i32, align 4
  %10 = alloca i32, align 4
  %11 = alloca i32, align 4
  store i32 0, i32* %1, align 4
  store i32 0, i32* %4, align 4
  %12 = call i32 (i8*, ...) @__isoc99_scanf(i8* getelementptr inbounds ([6 x i8], [6 x i8]* @.str, i64 0, i64 0), i32* %2, i32* %3)
  store i32 1, i32* %10, align 4
  store i32 1, i32* %8, align 4
  %13 = load i32, i32* %2, align 4
  store i32 %13, i32* %9, align 4
  %14 = load i32, i32* %3, align 4
  store i32 %14, i32* %11, align 4
  store i32 1, i32* %5, align 4
  br label %15

15:                                               ; preds = %36, %0
  %16 = load i32, i32* %5, align 4
  %17 = load i32, i32* %2, align 4
  %18 = icmp sle i32 %16, %17
  br i1 %18, label %19, label %39

19:                                               ; preds = %15
  store i32 1, i32* %6, align 4
  br label %20

20:                                               ; preds = %32, %19
  %21 = load i32, i32* %6, align 4
  %22 = load i32, i32* %3, align 4
  %23 = icmp sle i32 %21, %22
  br i1 %23, label %24, label %35

24:                                               ; preds = %20
  %25 = load i32, i32* %5, align 4
  %26 = sext i32 %25 to i64
  %27 = getelementptr inbounds [100 x [100 x i32]], [100 x [100 x i32]]* %7, i64 0, i64 %26
  %28 = load i32, i32* %6, align 4
  %29 = sext i32 %28 to i64
  %30 = getelementptr inbounds [100 x i32], [100 x i32]* %27, i64 0, i64 %29
  %31 = call i32 (i8*, ...) @__isoc99_scanf(i8* getelementptr inbounds ([3 x i8], [3 x i8]* @.str.1, i64 0, i64 0), i32* %30)
  br label %32

32:                                               ; preds = %24
  %33 = load i32, i32* %6, align 4
  %34 = add nsw i32 %33, 1
  store i32 %34, i32* %6, align 4
  br label %20

35:                                               ; preds = %20
  br label %36

36:                                               ; preds = %35
  %37 = load i32, i32* %5, align 4
  %38 = add nsw i32 %37, 1
  store i32 %38, i32* %5, align 4
  br label %15

39:                                               ; preds = %15
  br label %40

40:                                               ; preds = %158, %39
  %41 = load i32, i32* %4, align 4
  %42 = load i32, i32* %2, align 4
  %43 = load i32, i32* %3, align 4
  %44 = mul nsw i32 %42, %43
  %45 = icmp slt i32 %41, %44
  br i1 %45, label %46, label %167

46:                                               ; preds = %40
  %47 = load i32, i32* %10, align 4
  store i32 %47, i32* %5, align 4
  br label %48

48:                                               ; preds = %70, %46
  %49 = load i32, i32* %5, align 4
  %50 = load i32, i32* %11, align 4
  %51 = icmp sle i32 %49, %50
  br i1 %51, label %52, label %73

52:                                               ; preds = %48
  %53 = load i32, i32* %4, align 4
  %54 = load i32, i32* %2, align 4
  %55 = load i32, i32* %3, align 4
  %56 = mul nsw i32 %54, %55
  %57 = icmp eq i32 %53, %56
  br i1 %57, label %58, label %59

58:                                               ; preds = %52
  br label %73

59:                                               ; preds = %52
  %60 = load i32, i32* %8, align 4
  %61 = sext i32 %60 to i64
  %62 = getelementptr inbounds [100 x [100 x i32]], [100 x [100 x i32]]* %7, i64 0, i64 %61
  %63 = load i32, i32* %5, align 4
  %64 = sext i32 %63 to i64
  %65 = getelementptr inbounds [100 x i32], [100 x i32]* %62, i64 0, i64 %64
  %66 = load i32, i32* %65, align 4
  %67 = call i32 (i8*, ...) @printf(i8* getelementptr inbounds ([4 x i8], [4 x i8]* @.str.2, i64 0, i64 0), i32 %66)
  %68 = load i32, i32* %4, align 4
  %69 = add nsw i32 %68, 1
  store i32 %69, i32* %4, align 4
  br label %70

70:                                               ; preds = %59
  %71 = load i32, i32* %5, align 4
  %72 = add nsw i32 %71, 1
  store i32 %72, i32* %5, align 4
  br label %48

73:                                               ; preds = %58, %48
  %74 = load i32, i32* %8, align 4
  %75 = add nsw i32 %74, 1
  store i32 %75, i32* %5, align 4
  br label %76

76:                                               ; preds = %98, %73
  %77 = load i32, i32* %5, align 4
  %78 = load i32, i32* %9, align 4
  %79 = icmp sle i32 %77, %78
  br i1 %79, label %80, label %101

80:                                               ; preds = %76
  %81 = load i32, i32* %4, align 4
  %82 = load i32, i32* %2, align 4
  %83 = load i32, i32* %3, align 4
  %84 = mul nsw i32 %82, %83
  %85 = icmp eq i32 %81, %84
  br i1 %85, label %86, label %87

86:                                               ; preds = %80
  br label %101

87:                                               ; preds = %80
  %88 = load i32, i32* %5, align 4
  %89 = sext i32 %88 to i64
  %90 = getelementptr inbounds [100 x [100 x i32]], [100 x [100 x i32]]* %7, i64 0, i64 %89
  %91 = load i32, i32* %11, align 4
  %92 = sext i32 %91 to i64
  %93 = getelementptr inbounds [100 x i32], [100 x i32]* %90, i64 0, i64 %92
  %94 = load i32, i32* %93, align 4
  %95 = call i32 (i8*, ...) @printf(i8* getelementptr inbounds ([4 x i8], [4 x i8]* @.str.2, i64 0, i64 0), i32 %94)
  %96 = load i32, i32* %4, align 4
  %97 = add nsw i32 %96, 1
  store i32 %97, i32* %4, align 4
  br label %98

98:                                               ; preds = %87
  %99 = load i32, i32* %5, align 4
  %100 = add nsw i32 %99, 1
  store i32 %100, i32* %5, align 4
  br label %76

101:                                              ; preds = %86, %76
  %102 = load i32, i32* %11, align 4
  %103 = sub nsw i32 %102, 1
  store i32 %103, i32* %5, align 4
  br label %104

104:                                              ; preds = %126, %101
  %105 = load i32, i32* %5, align 4
  %106 = load i32, i32* %10, align 4
  %107 = icmp sge i32 %105, %106
  br i1 %107, label %108, label %129

108:                                              ; preds = %104
  %109 = load i32, i32* %4, align 4
  %110 = load i32, i32* %2, align 4
  %111 = load i32, i32* %3, align 4
  %112 = mul nsw i32 %110, %111
  %113 = icmp eq i32 %109, %112
  br i1 %113, label %114, label %115

114:                                              ; preds = %108
  br label %129

115:                                              ; preds = %108
  %116 = load i32, i32* %9, align 4
  %117 = sext i32 %116 to i64
  %118 = getelementptr inbounds [100 x [100 x i32]], [100 x [100 x i32]]* %7, i64 0, i64 %117
  %119 = load i32, i32* %5, align 4
  %120 = sext i32 %119 to i64
  %121 = getelementptr inbounds [100 x i32], [100 x i32]* %118, i64 0, i64 %120
  %122 = load i32, i32* %121, align 4
  %123 = call i32 (i8*, ...) @printf(i8* getelementptr inbounds ([4 x i8], [4 x i8]* @.str.2, i64 0, i64 0), i32 %122)
  %124 = load i32, i32* %4, align 4
  %125 = add nsw i32 %124, 1
  store i32 %125, i32* %4, align 4
  br label %126

126:                                              ; preds = %115
  %127 = load i32, i32* %5, align 4
  %128 = add nsw i32 %127, -1
  store i32 %128, i32* %5, align 4
  br label %104

129:                                              ; preds = %114, %104
  %130 = load i32, i32* %9, align 4
  %131 = sub nsw i32 %130, 1
  store i32 %131, i32* %5, align 4
  br label %132

132:                                              ; preds = %155, %129
  %133 = load i32, i32* %5, align 4
  %134 = load i32, i32* %8, align 4
  %135 = add nsw i32 %134, 1
  %136 = icmp sge i32 %133, %135
  br i1 %136, label %137, label %158

137:                                              ; preds = %132
  %138 = load i32, i32* %4, align 4
  %139 = load i32, i32* %2, align 4
  %140 = load i32, i32* %3, align 4
  %141 = mul nsw i32 %139, %140
  %142 = icmp eq i32 %138, %141
  br i1 %142, label %143, label %144

143:                                              ; preds = %137
  br label %158

144:                                              ; preds = %137
  %145 = load i32, i32* %5, align 4
  %146 = sext i32 %145 to i64
  %147 = getelementptr inbounds [100 x [100 x i32]], [100 x [100 x i32]]* %7, i64 0, i64 %146
  %148 = load i32, i32* %10, align 4
  %149 = sext i32 %148 to i64
  %150 = getelementptr inbounds [100 x i32], [100 x i32]* %147, i64 0, i64 %149
  %151 = load i32, i32* %150, align 4
  %152 = call i32 (i8*, ...) @printf(i8* getelementptr inbounds ([4 x i8], [4 x i8]* @.str.2, i64 0, i64 0), i32 %151)
  %153 = load i32, i32* %4, align 4
  %154 = add nsw i32 %153, 1
  store i32 %154, i32* %4, align 4
  br label %155

155:                                              ; preds = %144
  %156 = load i32, i32* %5, align 4
  %157 = add nsw i32 %156, -1
  store i32 %157, i32* %5, align 4
  br label %132

158:                                              ; preds = %143, %132
  %159 = load i32, i32* %8, align 4
  %160 = add nsw i32 %159, 1
  store i32 %160, i32* %8, align 4
  %161 = load i32, i32* %9, align 4
  %162 = add nsw i32 %161, -1
  store i32 %162, i32* %9, align 4
  %163 = load i32, i32* %11, align 4
  %164 = add nsw i32 %163, -1
  store i32 %164, i32* %11, align 4
  %165 = load i32, i32* %10, align 4
  %166 = add nsw i32 %165, 1
  store i32 %166, i32* %10, align 4
  br label %40

167:                                              ; preds = %40
  ret i32 0
}

declare dso_local i32 @__isoc99_scanf(i8*, ...) #1

declare dso_local i32 @printf(i8*, ...) #1


!llvm.module.flags = !{!0}
!llvm.ident = !{!1}

!0 = !{i32 1, !"wchar_size", i32 4}
!1 = !{!"clang version 10.0.0-4ubuntu1 "}
